target datalayout = "e-m:e-p270:32:32-p271:32:32-p272:64:64-i64:64-i128:128-f80:128-n8:16:32:64-S128"
target triple = "x86_64-pc-linux-gnu"

%struct.strvec = type { ptr, i64, i64 }
%struct.child_process = type { %struct.strvec, %struct.strvec, i32, i32, i64, ptr, ptr, i32, i32, i32, ptr, i16, ptr }

@.str.180 = private unnamed_addr constant [10 x i8] c"systemctl\00", align 1
@.str.184 = private unnamed_addr constant [7 x i8] c"--user\00", align 1
@.str.185 = private unnamed_addr constant [12 x i8] c"list-timers\00", align 1

; Function Attrs: nounwind uwtable
define internal i32 @real_is_systemd_timer_available() #0 {
  %1 = alloca i32, align 4
  %2 = alloca %struct.child_process, align 8
  %3 = alloca i32, align 4
  call void @llvm.lifetime.start.p0(i64 120, ptr %2) #11
  call void @llvm.memcpy.p0.p0.i64(ptr align 8 %2, ptr align 8 @__const.real_is_systemd_timer_available.child, i64 120, i1 false)
  %4 = getelementptr inbounds nuw %struct.child_process, ptr %2, i32 0, i32 0
  call void (ptr, ...) @strvec_pushl(ptr noundef %4, ptr noundef @.str.180, ptr noundef @.str.184, ptr noundef @.str.185, ptr noundef null)
  %5 = getelementptr inbounds nuw %struct.child_process, ptr %2, i32 0, i32 11
  %6 = load i16, ptr %5, align 8
  %7 = and i16 %6, -2
  %8 = or i16 %7, 1
  store i16 %8, ptr %5, align 8
  %9 = getelementptr inbounds nuw %struct.child_process, ptr %2, i32 0, i32 11
  %10 = load i16, ptr %9, align 8
  %11 = and i16 %10, -3
  %12 = or i16 %11, 2
  store i16 %12, ptr %9, align 8
  %13 = getelementptr inbounds nuw %struct.child_process, ptr %2, i32 0, i32 11
  %14 = load i16, ptr %13, align 8
  %15 = and i16 %14, -5
  %16 = or i16 %15, 4
  store i16 %16, ptr %13, align 8
  %17 = getelementptr inbounds nuw %struct.child_process, ptr %2, i32 0, i32 11
  %18 = load i16, ptr %17, align 8
  %19 = and i16 %18, -17
  %20 = or i16 %19, 16
  store i16 %20, ptr %17, align 8
  %21 = call i32 @start_command(ptr noundef %2)
  %22 = icmp ne i32 %21, 0
  br i1 %22, label %23, label %24

23:                                               ; preds = %0
  store i32 0, ptr %1, align 4
  store i32 1, ptr %3, align 4
  br label %29

24:                                               ; preds = %0
  %25 = call i32 @finish_command(ptr noundef %2)
  %26 = icmp ne i32 %25, 0
  br i1 %26, label %27, label %28

27:                                               ; preds = %24
  store i32 0, ptr %1, align 4
  store i32 1, ptr %3, align 4
  br label %29

28:                                               ; preds = %24
  store i32 1, ptr %1, align 4
  store i32 1, ptr %3, align 4
  br label %29

29:                                               ; preds = %28, %27, %23
  call void @llvm.lifetime.end.p0(i64 120, ptr %2) #11
  %30 = load i32, ptr %1, align 4
  ret i32 %30
}

; Function Attrs: nounwind uwtable
define internal i32 @is_systemd_timer_available() #0 {
  %1 = alloca i32, align 4
  %2 = alloca i32, align 4
  %3 = alloca i32, align 4
  call void @llvm.lifetime.start.p0(i64 4, ptr %2) #11
  %4 = call i32 @get_schedule_cmd(ptr noundef @.str.180, ptr noundef %2, ptr noundef null)
  %5 = icmp ne i32 %4, 0
  br i1 %5, label %6, label %8

6:                                                ; preds = %0
  %7 = load i32, ptr %2, align 4, !tbaa !4
  store i32 %7, ptr %1, align 4
  store i32 1, ptr %3, align 4
  br label %10

8:                                                ; preds = %0
  %9 = call i32 @real_is_systemd_timer_available()
  store i32 %9, ptr %1, align 4
  store i32 1, ptr %3, align 4
  br label %10

10:                                               ; preds = %8, %6
  call void @llvm.lifetime.end.p0(i64 4, ptr %2) #11
  %11 = load i32, ptr %1, align 4
  ret i32 %11
}