; Function Attrs: nounwind uwtable
define internal i32 @is_systemd_timer_available() #0 {
  %1 = alloca %struct.child_process, align 8
  %2 = alloca i32, align 4
  call void @llvm.lifetime.start.p0(i64 4, ptr nonnull %2) #21
  %3 = call fastcc i32 @get_schedule_cmd(ptr noundef nonnull @.str.180, ptr noundef nonnull %2, ptr noundef null)
  %.not = icmp eq i32 %3, 0
  br i1 %.not, label %6, label %4

4:                                                ; preds = %0
  %5 = load i32, ptr %2, align 4, !tbaa !4
  br label %13

6:                                                ; preds = %0
  call void @llvm.lifetime.start.p0(i64 120, ptr nonnull %1) #21
  call void @llvm.memcpy.p0.p0.i64(ptr noundef nonnull align 8 dereferenceable(120) %1, ptr noundef nonnull align 8 dereferenceable(120) @__const.schtasks_remove_task.child, i64 120, i1 false)
  call void (ptr, ...) @strvec_pushl(ptr noundef nonnull %1, ptr noundef nonnull @.str.180, ptr noundef nonnull @.str.184, ptr noundef nonnull @.str.185, ptr noundef null) #21
  %7 = getelementptr inbounds nuw i8, ptr %1, i64 104
  %8 = load i16, ptr %7, align 8
  %9 = or i16 %8, 23
  store i16 %9, ptr %7, align 8
  %10 = call i32 @start_command(ptr noundef nonnull %1) #21
  %.not.i = icmp eq i32 %10, 0
  br i1 %.not.i, label %11, label %real_is_systemd_timer_available.exit

11:                                               ; preds = %6
  %12 = call i32 @finish_command(ptr noundef nonnull %1) #21
  %.not1.i = icmp eq i32 %12, 0
  %..i = zext i1 %.not1.i to i32
  br label %real_is_systemd_timer_available.exit

real_is_systemd_timer_available.exit:             ; preds = %6, %11
  %.0.i = phi i32 [ 0, %6 ], [ %..i, %11 ]
  call void @llvm.lifetime.end.p0(i64 120, ptr nonnull %1) #21
  br label %13

13:                                               ; preds = %real_is_systemd_timer_available.exit, %4
  %.0 = phi i32 [ %5, %4 ], [ %.0.i, %real_is_systemd_timer_available.exit ]
  call void @llvm.lifetime.end.p0(i64 4, ptr nonnull %2) #21
  ret i32 %.0
}